target datalayout = "e-m:e-p270:32:32-p271:32:32-p272:64:64-i64:64-i128:128-f80:128-n8:16:32:64-S128"
target triple = "x86_64-pc-linux-gnu"

%struct.cl_engine = type { i32, i32, i32, [2 x i32], i32, i32, i32, ptr, i32, i64, i32, i32, i64, i64, i32, i32, i32, i32, ptr, ptr, ptr, ptr, ptr, ptr, ptr, ptr, ptr, ptr, ptr, ptr, ptr, ptr, ptr, ptr, ptr, ptr, ptr, i64, ptr, %struct.crtmgr, ptr, ptr, ptr, ptr, ptr, ptr, ptr, ptr, ptr, ptr, ptr, ptr, ptr, ptr, ptr, ptr, ptr, %struct.cli_all_bc, [7 x ptr], [7 x i32], i32, i32, i32, i32, i64, i64, i64, i64, i64, ptr, ptr, ptr, ptr, ptr, ptr, ptr, ptr, ptr, i32, i32, i32, i64, i64, i64, ptr }
%struct.crtmgr = type { ptr, i32 }
%struct.cli_all_bc = type { ptr, i32, ptr, %struct.cli_environment, i32 }
%struct.cli_environment = type { i32, i32, i32, i32, i32, i32, i32, [65 x i8], [65 x i8], [65 x i8], [65 x i8], [65 x i8], [65 x i8], [65 x i8], i8, i8, i8, i8, i8, i8, i8, i8, i8 }
%struct.cli_ftype = type { i32, i32, ptr, ptr, ptr, i16 }

; Function Attrs: nounwind uwtable
define void @cli_ftfree(ptr noundef %0) #0 {
  %2 = alloca ptr, align 8
  %3 = alloca ptr, align 8
  %4 = alloca ptr, align 8
  store ptr %0, ptr %2, align 8
  %5 = load ptr, ptr %2, align 8
  %6 = getelementptr inbounds %struct.cl_engine, ptr %5, i32 0, i32 28
  %7 = load ptr, ptr %6, align 8
  store ptr %7, ptr %3, align 8
  br label %8

8:                                                ; preds = %11, %1
  %9 = load ptr, ptr %3, align 8
  %10 = icmp ne ptr %9, null
  br i1 %10, label %11, label %32

11:                                               ; preds = %8
  %12 = load ptr, ptr %3, align 8
  store ptr %12, ptr %4, align 8
  %13 = load ptr, ptr %3, align 8
  %14 = getelementptr inbounds %struct.cli_ftype, ptr %13, i32 0, i32 4
  %15 = load ptr, ptr %14, align 8
  store ptr %15, ptr %3, align 8
  %16 = load ptr, ptr %2, align 8
  %17 = getelementptr inbounds %struct.cl_engine, ptr %16, i32 0, i32 38
  %18 = load ptr, ptr %17, align 8
  %19 = load ptr, ptr %4, align 8
  %20 = getelementptr inbounds %struct.cli_ftype, ptr %19, i32 0, i32 2
  %21 = load ptr, ptr %20, align 8
  call void @mpool_free(ptr noundef %18, ptr noundef %21)
  %22 = load ptr, ptr %2, align 8
  %23 = getelementptr inbounds %struct.cl_engine, ptr %22, i32 0, i32 38
  %24 = load ptr, ptr %23, align 8
  %25 = load ptr, ptr %4, align 8
  %26 = getelementptr inbounds %struct.cli_ftype, ptr %25, i32 0, i32 3
  %27 = load ptr, ptr %26, align 8
  call void @mpool_free(ptr noundef %24, ptr noundef %27)
  %28 = load ptr, ptr %2, align 8
  %29 = getelementptr inbounds %struct.cl_engine, ptr %28, i32 0, i32 38
  %30 = load ptr, ptr %29, align 8
  %31 = load ptr, ptr %4, align 8
  call void @mpool_free(ptr noundef %30, ptr noundef %31)
  br label %8

32:                                               ; preds = %8
  %33 = load ptr, ptr %2, align 8
  %34 = getelementptr inbounds %struct.cl_engine, ptr %33, i32 0, i32 29
  %35 = load ptr, ptr %34, align 8
  store ptr %35, ptr %3, align 8
  br label %36

36:                                               ; preds = %39, %32
  %37 = load ptr, ptr %3, align 8
  %38 = icmp ne ptr %37, null
  br i1 %38, label %39, label %60

39:                                               ; preds = %36
  %40 = load ptr, ptr %3, align 8
  store ptr %40, ptr %4, align 8
  %41 = load ptr, ptr %3, align 8
  %42 = getelementptr inbounds %struct.cli_ftype, ptr %41, i32 0, i32 4
  %43 = load ptr, ptr %42, align 8
  store ptr %43, ptr %3, align 8
  %44 = load ptr, ptr %2, align 8
  %45 = getelementptr inbounds %struct.cl_engine, ptr %44, i32 0, i32 38
  %46 = load ptr, ptr %45, align 8
  %47 = load ptr, ptr %4, align 8
  %48 = getelementptr inbounds %struct.cli_ftype, ptr %47, i32 0, i32 2
  %49 = load ptr, ptr %48, align 8
  call void @mpool_free(ptr noundef %46, ptr noundef %49)
  %50 = load ptr, ptr %2, align 8
  %51 = getelementptr inbounds %struct.cl_engine, ptr %50, i32 0, i32 38
  %52 = load ptr, ptr %51, align 8
  %53 = load ptr, ptr %4, align 8
  %54 = getelementptr inbounds %struct.cli_ftype, ptr %53, i32 0, i32 3
  %55 = load ptr, ptr %54, align 8
  call void @mpool_free(ptr noundef %52, ptr noundef %55)
  %56 = load ptr, ptr %2, align 8
  %57 = getelementptr inbounds %struct.cl_engine, ptr %56, i32 0, i32 38
  %58 = load ptr, ptr %57, align 8
  %59 = load ptr, ptr %4, align 8
  call void @mpool_free(ptr noundef %58, ptr noundef %59)
  br label %36

60:                                               ; preds = %36
  ret void
}