; Function Attrs: nounwind uwtable
define void @cli_ftfree(ptr noundef readonly captures(none) %0) local_unnamed_addr #3 {
  %2 = getelementptr inbounds nuw i8, ptr %0, i64 176
  %3 = load ptr, ptr %2, align 8
  %.not21 = icmp eq ptr %3, null
  br i1 %.not21, label %._crit_edge, label %.lr.ph

.lr.ph:                                           ; preds = %1
  %4 = getelementptr inbounds nuw i8, ptr %0, i64 256
  br label %5

5:                                                ; preds = %.lr.ph, %5
  %.022 = phi ptr [ %3, %.lr.ph ], [ %7, %5 ]
  %6 = getelementptr inbounds nuw i8, ptr %.022, i64 24
  %7 = load ptr, ptr %6, align 8
  %8 = load ptr, ptr %4, align 8
  %9 = getelementptr inbounds nuw i8, ptr %.022, i64 8
  %10 = load ptr, ptr %9, align 8
  tail call void @mpool_free(ptr noundef %8, ptr noundef %10) #10
  %11 = load ptr, ptr %4, align 8
  %12 = getelementptr inbounds nuw i8, ptr %.022, i64 16
  %13 = load ptr, ptr %12, align 8
  tail call void @mpool_free(ptr noundef %11, ptr noundef %13) #10
  %14 = load ptr, ptr %4, align 8
  tail call void @mpool_free(ptr noundef %14, ptr noundef nonnull %.022) #10
  %.not = icmp eq ptr %7, null
  br i1 %.not, label %._crit_edge, label %5

._crit_edge:                                      ; preds = %5, %1
  %15 = getelementptr inbounds nuw i8, ptr %0, i64 184
  %16 = load ptr, ptr %15, align 8
  %.not2023 = icmp eq ptr %16, null
  br i1 %.not2023, label %._crit_edge27, label %.lr.ph26

.lr.ph26:                                         ; preds = %._crit_edge
  %17 = getelementptr inbounds nuw i8, ptr %0, i64 256
  br label %18

18:                                               ; preds = %.lr.ph26, %18
  %.124 = phi ptr [ %16, %.lr.ph26 ], [ %20, %18 ]
  %19 = getelementptr inbounds nuw i8, ptr %.124, i64 24
  %20 = load ptr, ptr %19, align 8
  %21 = load ptr, ptr %17, align 8
  %22 = getelementptr inbounds nuw i8, ptr %.124, i64 8
  %23 = load ptr, ptr %22, align 8
  tail call void @mpool_free(ptr noundef %21, ptr noundef %23) #10
  %24 = load ptr, ptr %17, align 8
  %25 = getelementptr inbounds nuw i8, ptr %.124, i64 16
  %26 = load ptr, ptr %25, align 8
  tail call void @mpool_free(ptr noundef %24, ptr noundef %26) #10
  %27 = load ptr, ptr %17, align 8
  tail call void @mpool_free(ptr noundef %27, ptr noundef nonnull %.124) #10
  %.not20 = icmp eq ptr %20, null
  br i1 %.not20, label %._crit_edge27, label %18

._crit_edge27:                                    ; preds = %18, %._crit_edge
  ret void
}